---
triple:          'arm64-apple-darwin'
binary-path:     '/Users/ethan/Documents/TACC/main'
relocations:
  - { offsetInCU: 0x5F79, offset: 0x5F79, size: 0x8, addend: 0x0, symName: __ZNSt3__124__put_character_sequenceB7v160006IcNS_11char_traitsIcEEEERNS_13basic_ostreamIT_T0_EES7_PKS4_m, symObjAddr: 0x1AA8, symBinAddr: 0x10000419C, symSize: 0x1EC }
  - { offsetInCU: 0x7FAE, offset: 0x7FAE, size: 0x8, addend: 0x0, symName: __ZNSt3__1lsB7v160006INS_11char_traitsIcEEEERNS_13basic_ostreamIcT_EES6_PKc, symObjAddr: 0x1EC, symBinAddr: 0x1000028E0, symSize: 0x48 }
  - { offsetInCU: 0x7FF4, offset: 0x7FF4, size: 0x8, addend: 0x0, symName: __ZNSt3__14endlB7v160006IcNS_11char_traitsIcEEEERNS_13basic_ostreamIT_T0_EES7_, symObjAddr: 0x260, symBinAddr: 0x100002954, symSize: 0x58 }
  - { offsetInCU: 0x8034, offset: 0x8034, size: 0x8, addend: 0x0, symName: __ZNSt3__1neB7v160006IPdEEbRKNS_11__wrap_iterIT_EES6_, symObjAddr: 0x9C8, symBinAddr: 0x1000030BC, symSize: 0x34 }
  - { offsetInCU: 0x8077, offset: 0x8077, size: 0x8, addend: 0x0, symName: __ZNSt3__1neB7v160006IP6secretEEbRKNS_11__wrap_iterIT_EES7_, symObjAddr: 0xA94, symBinAddr: 0x100003188, symSize: 0x34 }
  - { offsetInCU: 0x80BA, offset: 0x80BA, size: 0x8, addend: 0x0, symName: __ZNSt3__1eqB7v160006IPdEEbRKNS_11__wrap_iterIT_EES6_, symObjAddr: 0xC20, symBinAddr: 0x100003314, symSize: 0x48 }
  - { offsetInCU: 0x80FD, offset: 0x80FD, size: 0x8, addend: 0x0, symName: __ZNSt3__1eqB7v160006IP6secretEEbRKNS_11__wrap_iterIT_EES7_, symObjAddr: 0xC80, symBinAddr: 0x100003374, symSize: 0x48 }
  - { offsetInCU: 0x8140, offset: 0x8140, size: 0x8, addend: 0x0, symName: __ZNSt3__119__debug_db_insert_cB7v160006INS_6vectorI6secretNS_9allocatorIS2_EEEEEEvPT_, symObjAddr: 0xDBC, symBinAddr: 0x1000034B0, symSize: 0x10 }
  - { offsetInCU: 0x8171, offset: 0x8171, size: 0x8, addend: 0x0, symName: __ZNSt3__119__debug_db_insert_cB7v160006INS_6vectorIdNS_9allocatorIdEEEEEEvPT_, symObjAddr: 0xF28, symBinAddr: 0x10000361C, symSize: 0x10 }
  - { offsetInCU: 0x81A2, offset: 0x81A2, size: 0x8, addend: 0x0, symName: __ZNSt3__118__debug_db_erase_cB7v160006INS_6vectorI6secretNS_9allocatorIS2_EEEEEEvPT_, symObjAddr: 0x11EC, symBinAddr: 0x1000038E0, symSize: 0x10 }
  - { offsetInCU: 0x81D3, offset: 0x81D3, size: 0x8, addend: 0x0, symName: __ZNSt3__112__to_addressB7v160006I6secretEEPT_S3_, symObjAddr: 0x1308, symBinAddr: 0x1000039FC, symSize: 0x14 }
  - { offsetInCU: 0x8208, offset: 0x8208, size: 0x8, addend: 0x0, symName: __ZNSt3__119__libcpp_deallocateB7v160006EPvmm, symObjAddr: 0x1428, symBinAddr: 0x100003B1C, symSize: 0x60 }
  - { offsetInCU: 0x826D, offset: 0x826D, size: 0x8, addend: 0x0, symName: __ZNSt3__124__is_overaligned_for_newB7v160006Em, symObjAddr: 0x1488, symBinAddr: 0x100003B7C, symSize: 0x20 }
  - { offsetInCU: 0x829B, offset: 0x829B, size: 0x8, addend: 0x0, symName: __ZNSt3__127__do_deallocate_handle_sizeB7v160006IJSt11align_val_tEEEvPvmDpT_, symObjAddr: 0x14A8, symBinAddr: 0x100003B9C, symSize: 0x30 }
  - { offsetInCU: 0x82EE, offset: 0x82EE, size: 0x8, addend: 0x0, symName: __ZNSt3__127__do_deallocate_handle_sizeB7v160006IJEEEvPvmDpT_, symObjAddr: 0x14D8, symBinAddr: 0x100003BCC, symSize: 0x28 }
  - { offsetInCU: 0x832C, offset: 0x832C, size: 0x8, addend: 0x0, symName: __ZNSt3__124__libcpp_operator_deleteB7v160006IJPvSt11align_val_tEEEvDpT_, symObjAddr: 0x1500, symBinAddr: 0x100003BF4, symSize: 0x2C }
  - { offsetInCU: 0x8375, offset: 0x8375, size: 0x8, addend: 0x0, symName: __ZNSt3__124__libcpp_operator_deleteB7v160006IJPvEEEvDpT_, symObjAddr: 0x152C, symBinAddr: 0x100003C20, symSize: 0x24 }
  - { offsetInCU: 0x83AA, offset: 0x83AA, size: 0x8, addend: 0x0, symName: __ZNSt3__118__debug_db_erase_cB7v160006INS_6vectorIdNS_9allocatorIdEEEEEEvPT_, symObjAddr: 0x17D4, symBinAddr: 0x100003EC8, symSize: 0x10 }
  - { offsetInCU: 0x83DB, offset: 0x83DB, size: 0x8, addend: 0x0, symName: __ZNSt3__112__to_addressB7v160006IdEEPT_S2_, symObjAddr: 0x18F0, symBinAddr: 0x100003FE4, symSize: 0x14 }
  - { offsetInCU: 0x8410, offset: 0x8410, size: 0x8, addend: 0x0, symName: __ZNSt3__116__pad_and_outputB7v160006IcNS_11char_traitsIcEEEENS_19ostreambuf_iteratorIT_T0_EES6_PKS4_S8_S8_RNS_8ios_baseES4_, symObjAddr: 0x1CE4, symBinAddr: 0x1000043D8, symSize: 0x240 }
  - { offsetInCU: 0x84DF, offset: 0x84DF, size: 0x8, addend: 0x0, symName: __ZNSt3__119__debug_db_insert_cB7v160006INS_12basic_stringIcNS_11char_traitsIcEENS_9allocatorIcEEEEEEvPT_, symObjAddr: 0x2198, symBinAddr: 0x10000488C, symSize: 0x10 }
  - { offsetInCU: 0x8510, offset: 0x8510, size: 0x8, addend: 0x0, symName: __ZNSt3__112__to_addressB7v160006IcEEPT_S2_, symObjAddr: 0x2264, symBinAddr: 0x100004958, symSize: 0x14 }
  - { offsetInCU: 0x8578, offset: 0x8578, size: 0x8, addend: 0x0, symName: __ZNSt3__19use_facetB7v160006INS_5ctypeIcEEEERKT_RKNS_6localeE, symObjAddr: 0x251C, symBinAddr: 0x100004C10, symSize: 0x2C }
  - { offsetInCU: 0x8A47, offset: 0x8A47, size: 0x8, addend: 0x0, symName: __ZNSt3__118__constexpr_strlenB7v160006EPKc, symObjAddr: 0x25B4, symBinAddr: 0x100004CA8, symSize: 0x24 }
  - { offsetInCU: 0x8A73, offset: 0x8A73, size: 0x8, addend: 0x0, symName: __ZNSt3__13maxB7v160006ImEERKT_S3_S3_, symObjAddr: 0x2B80, symBinAddr: 0x100005274, symSize: 0x2C }
  - { offsetInCU: 0x8AB6, offset: 0x8AB6, size: 0x8, addend: 0x0, symName: __ZNSt3__13minB7v160006ImEERKT_S3_S3_, symObjAddr: 0x2BAC, symBinAddr: 0x1000052A0, symSize: 0x2C }
  - { offsetInCU: 0x8CE3, offset: 0x8CE3, size: 0x8, addend: 0x0, symName: __ZNSt3__13minB7v160006ImNS_6__lessImmEEEERKT_S5_S5_T0_, symObjAddr: 0x2C38, symBinAddr: 0x10000532C, symSize: 0x54 }
  - { offsetInCU: 0x8D78, offset: 0x8D78, size: 0x8, addend: 0x0, symName: __ZNSt3__120__throw_length_errorB7v160006EPKc, symObjAddr: 0x2D14, symBinAddr: 0x100005408, symSize: 0x64 }
  - { offsetInCU: 0x8DA0, offset: 0x8DA0, size: 0x8, addend: 0x0, symName: __ZNSt3__13maxB7v160006ImNS_6__lessImmEEEERKT_S5_S5_T0_, symObjAddr: 0x2DF8, symBinAddr: 0x1000054EC, symSize: 0x54 }
  - { offsetInCU: 0x8DFA, offset: 0x8DFA, size: 0x8, addend: 0x0, symName: __ZNSt3__119__allocate_at_leastB7v160006INS_9allocatorIdEEEENS_19__allocation_resultINS_16allocator_traitsIT_E7pointerEEERS5_m, symObjAddr: 0x2F5C, symBinAddr: 0x100005650, symSize: 0x40 }
  - { offsetInCU: 0x8E3D, offset: 0x8E3D, size: 0x8, addend: 0x0, symName: __ZNSt3__117__libcpp_allocateB7v160006Emm, symObjAddr: 0x30E0, symBinAddr: 0x1000057D4, symSize: 0x60 }
  - { offsetInCU: 0x8E97, offset: 0x8E97, size: 0x8, addend: 0x0, symName: __ZNSt3__121__libcpp_operator_newB7v160006IJmSt11align_val_tEEEPvDpT_, symObjAddr: 0x3140, symBinAddr: 0x100005834, symSize: 0x2C }
  - { offsetInCU: 0x8EE4, offset: 0x8EE4, size: 0x8, addend: 0x0, symName: __ZNSt3__121__libcpp_operator_newB7v160006IJmEEEPvDpT_, symObjAddr: 0x316C, symBinAddr: 0x100005860, symSize: 0x24 }
  - { offsetInCU: 0x8F1D, offset: 0x8F1D, size: 0x8, addend: 0x0, symName: __ZNSt3__142__uninitialized_allocator_move_if_noexceptB7v160006INS_9allocatorIdEENS_16reverse_iteratorIPdEES5_dvEET1_RT_T0_S9_S6_, symObjAddr: 0x31F4, symBinAddr: 0x1000058E8, symSize: 0x78 }
  - { offsetInCU: 0x8F9A, offset: 0x8F9A, size: 0x8, addend: 0x0, symName: __ZNSt3__14swapB7v160006IPdEENS_9enable_ifIXaasr21is_move_constructibleIT_EE5valuesr18is_move_assignableIS3_EE5valueEvE4typeERS3_S6_, symObjAddr: 0x32B8, symBinAddr: 0x1000059AC, symSize: 0x3C }
  - { offsetInCU: 0x8FEB, offset: 0x8FEB, size: 0x8, addend: 0x0, symName: __ZNSt3__125__debug_db_invalidate_allB7v160006INS_6vectorIdNS_9allocatorIdEEEEEEvPT_, symObjAddr: 0x33A0, symBinAddr: 0x100005A94, symSize: 0x10 }
  - { offsetInCU: 0x901C, offset: 0x901C, size: 0x8, addend: 0x0, symName: __ZNSt3__14moveB7v160006INS_16reverse_iteratorIPdEES3_EET0_T_S5_S4_, symObjAddr: 0x33B0, symBinAddr: 0x100005AA4, symSize: 0x78 }
  - { offsetInCU: 0x9076, offset: 0x9076, size: 0x8, addend: 0x0, symName: __ZNSt3__16__moveB7v160006INS_17_ClassicAlgPolicyENS_16reverse_iteratorIPdEES4_S4_EENS_4pairIT0_T2_EES6_T1_S7_, symObjAddr: 0x3428, symBinAddr: 0x100005B1C, symSize: 0x64 }
  - { offsetInCU: 0x90E2, offset: 0x90E2, size: 0x8, addend: 0x0, symName: __ZNSt3__123__dispatch_copy_or_moveB7v160006INS_17_ClassicAlgPolicyENS_11__move_loopIS1_EENS_14__move_trivialENS_16reverse_iteratorIPdEES7_S7_EENS_4pairIT2_T4_EES9_T3_SA_, symObjAddr: 0x348C, symBinAddr: 0x100005B80, symSize: 0x64 }
  - { offsetInCU: 0x9160, offset: 0x9160, size: 0x8, addend: 0x0, symName: __ZNSt3__121__unwrap_and_dispatchB7v160006INS_10__overloadINS_11__move_loopINS_17_ClassicAlgPolicyEEENS_14__move_trivialEEENS_16reverse_iteratorIPdEES9_S9_Li0EEENS_4pairIT0_T2_EESB_T1_SC_, symObjAddr: 0x34F0, symBinAddr: 0x100005BE4, symSize: 0x12C }
  - { offsetInCU: 0x91F0, offset: 0x91F0, size: 0x8, addend: 0x0, symName: __ZNSt3__114__unwrap_rangeB7v160006INS_16reverse_iteratorIPdEES3_EENS_4pairIT0_S5_EET_S7_, symObjAddr: 0x361C, symBinAddr: 0x100005D10, symSize: 0x84 }
  - { offsetInCU: 0x93AA, offset: 0x93AA, size: 0x8, addend: 0x0, symName: __ZNSt3__113__unwrap_iterB7v160006INS_16reverse_iteratorIPdEENS_18__unwrap_iter_implIS3_Lb0EEELi0EEEDTclsrT0_8__unwrapclsr3stdE7declvalIT_EEEES7_, symObjAddr: 0x3740, symBinAddr: 0x100005E34, symSize: 0x44 }
  - { offsetInCU: 0x93EE, offset: 0x93EE, size: 0x8, addend: 0x0, symName: __ZNSt3__19make_pairB7v160006INS_16reverse_iteratorIPdEES3_EENS_4pairINS_18__unwrap_ref_decayIT_E4typeENS5_IT0_E4typeEEEOS6_OS9_, symObjAddr: 0x3784, symBinAddr: 0x100005E78, symSize: 0x38 }
  - { offsetInCU: 0x943D, offset: 0x943D, size: 0x8, addend: 0x0, symName: __ZNSt3__114__rewrap_rangeB7v160006INS_16reverse_iteratorIPdEES3_EET_S4_T0_, symObjAddr: 0x37BC, symBinAddr: 0x100005EB0, symSize: 0x5C }
  - { offsetInCU: 0x9489, offset: 0x9489, size: 0x8, addend: 0x0, symName: __ZNSt3__113__rewrap_iterB7v160006INS_16reverse_iteratorIPdEES3_NS_18__unwrap_iter_implIS3_Lb0EEEEET_S6_T0_, symObjAddr: 0x3818, symBinAddr: 0x100005F0C, symSize: 0x74 }
  - { offsetInCU: 0x94DE, offset: 0x94DE, size: 0x8, addend: 0x0, symName: __ZNSt3__1neB7v160006IPdS1_EEbRKNS_16reverse_iteratorIT_EERKNS2_IT0_EE, symObjAddr: 0x388C, symBinAddr: 0x100005F80, symSize: 0x48 }
  - { offsetInCU: 0x960F, offset: 0x960F, size: 0x8, addend: 0x0, symName: __ZNSt3__119__allocate_at_leastB7v160006INS_9allocatorI6secretEEEENS_19__allocation_resultINS_16allocator_traitsIT_E7pointerEEERS6_m, symObjAddr: 0x436C, symBinAddr: 0x100006A60, symSize: 0x40 }
  - { offsetInCU: 0x9652, offset: 0x9652, size: 0x8, addend: 0x0, symName: __ZNSt3__142__uninitialized_allocator_move_if_noexceptB7v160006INS_9allocatorI6secretEENS_16reverse_iteratorIPS2_EES6_S2_vEET1_RT_T0_SA_S7_, symObjAddr: 0x4520, symBinAddr: 0x100006C14, symSize: 0x78 }
  - { offsetInCU: 0x96CF, offset: 0x96CF, size: 0x8, addend: 0x0, symName: __ZNSt3__14swapB7v160006IP6secretEENS_9enable_ifIXaasr21is_move_constructibleIT_EE5valuesr18is_move_assignableIS4_EE5valueEvE4typeERS4_S7_, symObjAddr: 0x45E4, symBinAddr: 0x100006CD8, symSize: 0x3C }
  - { offsetInCU: 0x9720, offset: 0x9720, size: 0x8, addend: 0x0, symName: __ZNSt3__125__debug_db_invalidate_allB7v160006INS_6vectorI6secretNS_9allocatorIS2_EEEEEEvPT_, symObjAddr: 0x46CC, symBinAddr: 0x100006DC0, symSize: 0x10 }
  - { offsetInCU: 0x9751, offset: 0x9751, size: 0x8, addend: 0x0, symName: __ZNSt3__14moveB7v160006INS_16reverse_iteratorIP6secretEES4_EET0_T_S6_S5_, symObjAddr: 0x46DC, symBinAddr: 0x100006DD0, symSize: 0x78 }
  - { offsetInCU: 0x97AB, offset: 0x97AB, size: 0x8, addend: 0x0, symName: __ZNSt3__16__moveB7v160006INS_17_ClassicAlgPolicyENS_16reverse_iteratorIP6secretEES5_S5_EENS_4pairIT0_T2_EES7_T1_S8_, symObjAddr: 0x4754, symBinAddr: 0x100006E48, symSize: 0x64 }
  - { offsetInCU: 0x9817, offset: 0x9817, size: 0x8, addend: 0x0, symName: __ZNSt3__123__dispatch_copy_or_moveB7v160006INS_17_ClassicAlgPolicyENS_11__move_loopIS1_EENS_14__move_trivialENS_16reverse_iteratorIP6secretEES8_S8_EENS_4pairIT2_T4_EESA_T3_SB_, symObjAddr: 0x47B8, symBinAddr: 0x100006EAC, symSize: 0x64 }
  - { offsetInCU: 0x9895, offset: 0x9895, size: 0x8, addend: 0x0, symName: __ZNSt3__121__unwrap_and_dispatchB7v160006INS_10__overloadINS_11__move_loopINS_17_ClassicAlgPolicyEEENS_14__move_trivialEEENS_16reverse_iteratorIP6secretEESA_SA_Li0EEENS_4pairIT0_T2_EESC_T1_SD_, symObjAddr: 0x481C, symBinAddr: 0x100006F10, symSize: 0x12C }
  - { offsetInCU: 0x9925, offset: 0x9925, size: 0x8, addend: 0x0, symName: __ZNSt3__114__unwrap_rangeB7v160006INS_16reverse_iteratorIP6secretEES4_EENS_4pairIT0_S6_EET_S8_, symObjAddr: 0x4948, symBinAddr: 0x10000703C, symSize: 0x84 }
  - { offsetInCU: 0x9A45, offset: 0x9A45, size: 0x8, addend: 0x0, symName: __ZNSt3__113__unwrap_iterB7v160006INS_16reverse_iteratorIP6secretEENS_18__unwrap_iter_implIS4_Lb0EEELi0EEEDTclsrT0_8__unwrapclsr3stdE7declvalIT_EEEES8_, symObjAddr: 0x4A6C, symBinAddr: 0x100007160, symSize: 0x44 }
  - { offsetInCU: 0x9A89, offset: 0x9A89, size: 0x8, addend: 0x0, symName: __ZNSt3__19make_pairB7v160006INS_16reverse_iteratorIP6secretEES4_EENS_4pairINS_18__unwrap_ref_decayIT_E4typeENS6_IT0_E4typeEEEOS7_OSA_, symObjAddr: 0x4AB0, symBinAddr: 0x1000071A4, symSize: 0x38 }
  - { offsetInCU: 0x9AD8, offset: 0x9AD8, size: 0x8, addend: 0x0, symName: __ZNSt3__114__rewrap_rangeB7v160006INS_16reverse_iteratorIP6secretEES4_EET_S5_T0_, symObjAddr: 0x4AE8, symBinAddr: 0x1000071DC, symSize: 0x5C }
  - { offsetInCU: 0x9B24, offset: 0x9B24, size: 0x8, addend: 0x0, symName: __ZNSt3__113__rewrap_iterB7v160006INS_16reverse_iteratorIP6secretEES4_NS_18__unwrap_iter_implIS4_Lb0EEEEET_S7_T0_, symObjAddr: 0x4B44, symBinAddr: 0x100007238, symSize: 0x74 }
  - { offsetInCU: 0x9B79, offset: 0x9B79, size: 0x8, addend: 0x0, symName: __ZNSt3__1neB7v160006IP6secretS2_EEbRKNS_16reverse_iteratorIT_EERKNS3_IT0_EE, symObjAddr: 0x4BB8, symBinAddr: 0x1000072AC, symSize: 0x48 }
  - { offsetInCU: 0x9F8E, offset: 0x9F8E, size: 0x8, addend: 0x0, symName: __ZSt28__throw_bad_array_new_lengthB7v160006v, symObjAddr: 0x30AC, symBinAddr: 0x1000057A0, symSize: 0x34 }
  - { offsetInCU: 0xA703, offset: 0xA703, size: 0x8, addend: 0x0, symName: __ZNSt3__16vectorIdNS_9allocatorIdEEE26__swap_out_circular_bufferERNS_14__split_bufferIdRS2_EE, symObjAddr: 0x29C0, symBinAddr: 0x1000050B4, symSize: 0x118 }
  - { offsetInCU: 0xA758, offset: 0xA758, size: 0x8, addend: 0x0, symName: __Z3powB7v160006IdiENSt3__19enable_ifIXaasr3std13is_arithmeticIT_EE5valuesr3std13is_arithmeticIT0_EE5valueENS0_9__promoteIS2_S3_vEEE4type4typeES2_S3_, symObjAddr: 0x4B4, symBinAddr: 0x100002BA8, symSize: 0x38 }
  - { offsetInCU: 0xA7B3, offset: 0xA7B3, size: 0x8, addend: 0x0, symName: __ZNSt3__16vectorI6secretNS_9allocatorIS1_EEE26__swap_out_circular_bufferERNS_14__split_bufferIS1_RS3_EE, symObjAddr: 0x4004, symBinAddr: 0x1000066F8, symSize: 0x118 }
  - { offsetInCU: 0xCA57, offset: 0xCA57, size: 0x8, addend: 0x0, symName: __ZN13secretSharingC2Eii, symObjAddr: 0x0, symBinAddr: 0x1000026F4, symSize: 0x194 }
  - { offsetInCU: 0xCAB9, offset: 0xCAB9, size: 0x8, addend: 0x0, symName: __ZNSt3__16vectorI6secretNS_9allocatorIS1_EEEC1B7v160006Ev, symObjAddr: 0x194, symBinAddr: 0x100002888, symSize: 0x2C }
  - { offsetInCU: 0xCAE2, offset: 0xCAE2, size: 0x8, addend: 0x0, symName: __ZNSt3__16vectorIdNS_9allocatorIdEEEC1B7v160006Ev, symObjAddr: 0x1C0, symBinAddr: 0x1000028B4, symSize: 0x2C }
  - { offsetInCU: 0xCB0B, offset: 0xCB0B, size: 0x8, addend: 0x0, symName: __ZNSt3__113basic_ostreamIcNS_11char_traitsIcEEElsB7v160006EPFRS3_S4_E, symObjAddr: 0x234, symBinAddr: 0x100002928, symSize: 0x2C }
  - { offsetInCU: 0xCB3D, offset: 0xCB3D, size: 0x8, addend: 0x0, symName: __ZNSt3__16vectorIdNS_9allocatorIdEEE9push_backB7v160006EOd, symObjAddr: 0x2B8, symBinAddr: 0x1000029AC, symSize: 0x6C }
  - { offsetInCU: 0xCB73, offset: 0xCB73, size: 0x8, addend: 0x0, symName: __ZNSt3__16vectorIdNS_9allocatorIdEEED1B7v160006Ev, symObjAddr: 0x324, symBinAddr: 0x100002A18, symSize: 0x2C }
  - { offsetInCU: 0xCB9C, offset: 0xCB9C, size: 0x8, addend: 0x0, symName: __ZNSt3__16vectorI6secretNS_9allocatorIS1_EEED1B7v160006Ev, symObjAddr: 0x350, symBinAddr: 0x100002A44, symSize: 0x2C }
  - { offsetInCU: 0xCBC5, offset: 0xCBC5, size: 0x8, addend: 0x0, symName: __ZN13secretSharingC1Eii, symObjAddr: 0x37C, symBinAddr: 0x100002A70, symSize: 0x3C }
  - { offsetInCU: 0xCC0B, offset: 0xCC0B, size: 0x8, addend: 0x0, symName: __ZN13secretSharing9calculateEd, symObjAddr: 0x3B8, symBinAddr: 0x100002AAC, symSize: 0xB0 }
  - { offsetInCU: 0xCC69, offset: 0xCC69, size: 0x8, addend: 0x0, symName: __ZNKSt3__16vectorIdNS_9allocatorIdEEE4sizeB7v160006Ev, symObjAddr: 0x468, symBinAddr: 0x100002B5C, symSize: 0x28 }
  - { offsetInCU: 0xCC8E, offset: 0xCC8E, size: 0x8, addend: 0x0, symName: __ZNSt3__16vectorIdNS_9allocatorIdEEEixB7v160006Em, symObjAddr: 0x490, symBinAddr: 0x100002B84, symSize: 0x24 }
  - { offsetInCU: 0xCCC4, offset: 0xCCC4, size: 0x8, addend: 0x0, symName: __ZN13secretSharing11splitSecretEd, symObjAddr: 0x4EC, symBinAddr: 0x100002BE0, symSize: 0xC0 }
  - { offsetInCU: 0xCD2F, offset: 0xCD2F, size: 0x8, addend: 0x0, symName: __ZNSt3__16vectorI6secretNS_9allocatorIS1_EEE9push_backB7v160006ERKS1_, symObjAddr: 0x5AC, symBinAddr: 0x100002CA0, symSize: 0x6C }
  - { offsetInCU: 0xCD65, offset: 0xCD65, size: 0x8, addend: 0x0, symName: __ZN13secretSharing15calculateSecretEv, symObjAddr: 0x618, symBinAddr: 0x100002D0C, symSize: 0x1D0 }
  - { offsetInCU: 0xCE25, offset: 0xCE25, size: 0x8, addend: 0x0, symName: __ZNSt3__16vectorI6secretNS_9allocatorIS1_EEEixB7v160006Em, symObjAddr: 0x7E8, symBinAddr: 0x100002EDC, symSize: 0x24 }
  - { offsetInCU: 0xCE5B, offset: 0xCE5B, size: 0x8, addend: 0x0, symName: __ZNKSt3__16vectorI6secretNS_9allocatorIS1_EEE4sizeB7v160006Ev, symObjAddr: 0x80C, symBinAddr: 0x100002F00, symSize: 0x28 }
  - { offsetInCU: 0xCE80, offset: 0xCE80, size: 0x8, addend: 0x0, symName: __ZN13secretSharing12outputSecretEv, symObjAddr: 0x834, symBinAddr: 0x100002F28, symSize: 0x134 }
  - { offsetInCU: 0xCF47, offset: 0xCF47, size: 0x8, addend: 0x0, symName: __ZNSt3__16vectorIdNS_9allocatorIdEEE5beginB7v160006Ev, symObjAddr: 0x968, symBinAddr: 0x10000305C, symSize: 0x30 }
  - { offsetInCU: 0xCF6D, offset: 0xCF6D, size: 0x8, addend: 0x0, symName: __ZNSt3__16vectorIdNS_9allocatorIdEEE3endB7v160006Ev, symObjAddr: 0x998, symBinAddr: 0x10000308C, symSize: 0x30 }
  - { offsetInCU: 0xCF94, offset: 0xCF94, size: 0x8, addend: 0x0, symName: __ZNKSt3__111__wrap_iterIPdEdeB7v160006Ev, symObjAddr: 0x9FC, symBinAddr: 0x1000030F0, symSize: 0x18 }
  - { offsetInCU: 0xCFB9, offset: 0xCFB9, size: 0x8, addend: 0x0, symName: __ZNSt3__111__wrap_iterIPdEppB7v160006Ev, symObjAddr: 0xA14, symBinAddr: 0x100003108, symSize: 0x20 }
  - { offsetInCU: 0xCFDD, offset: 0xCFDD, size: 0x8, addend: 0x0, symName: __ZNSt3__16vectorI6secretNS_9allocatorIS1_EEE5beginB7v160006Ev, symObjAddr: 0xA34, symBinAddr: 0x100003128, symSize: 0x30 }
  - { offsetInCU: 0xD003, offset: 0xD003, size: 0x8, addend: 0x0, symName: __ZNSt3__16vectorI6secretNS_9allocatorIS1_EEE3endB7v160006Ev, symObjAddr: 0xA64, symBinAddr: 0x100003158, symSize: 0x30 }
  - { offsetInCU: 0xD02A, offset: 0xD02A, size: 0x8, addend: 0x0, symName: __ZNKSt3__111__wrap_iterIP6secretEdeB7v160006Ev, symObjAddr: 0xAC8, symBinAddr: 0x1000031BC, symSize: 0x18 }
  - { offsetInCU: 0xD04F, offset: 0xD04F, size: 0x8, addend: 0x0, symName: __ZNSt3__111__wrap_iterIP6secretEppB7v160006Ev, symObjAddr: 0xAE0, symBinAddr: 0x1000031D4, symSize: 0x20 }
  - { offsetInCU: 0xD074, offset: 0xD074, size: 0x8, addend: 0x0, symName: _main, symObjAddr: 0xB00, symBinAddr: 0x1000031F4, symSize: 0xF4 }
  - { offsetInCU: 0xD09D, offset: 0xD09D, size: 0x8, addend: 0x0, symName: __ZN13secretSharingD1Ev, symObjAddr: 0xBF4, symBinAddr: 0x1000032E8, symSize: 0x2C }
  - { offsetInCU: 0xD0C8, offset: 0xD0C8, size: 0x8, addend: 0x0, symName: __ZNKSt3__111__wrap_iterIPdE4baseB7v160006Ev, symObjAddr: 0xC68, symBinAddr: 0x10000335C, symSize: 0x18 }
  - { offsetInCU: 0xD0ED, offset: 0xD0ED, size: 0x8, addend: 0x0, symName: __ZNKSt3__111__wrap_iterIP6secretE4baseB7v160006Ev, symObjAddr: 0xCC8, symBinAddr: 0x1000033BC, symSize: 0x18 }
  - { offsetInCU: 0xD112, offset: 0xD112, size: 0x8, addend: 0x0, symName: __ZN13secretSharingD2Ev, symObjAddr: 0xCE0, symBinAddr: 0x1000033D4, symSize: 0x3C }
  - { offsetInCU: 0xD13D, offset: 0xD13D, size: 0x8, addend: 0x0, symName: __ZNSt3__16vectorI6secretNS_9allocatorIS1_EEEC2B7v160006Ev, symObjAddr: 0xD1C, symBinAddr: 0x100003410, symSize: 0x58 }
  - { offsetInCU: 0xD170, offset: 0xD170, size: 0x8, addend: 0x0, symName: __ZNSt3__117__compressed_pairIP6secretNS_9allocatorIS1_EEEC1B7v160006IDnNS_18__default_init_tagEEEOT_OT0_, symObjAddr: 0xD74, symBinAddr: 0x100003468, symSize: 0x3C }
  - { offsetInCU: 0xD1C7, offset: 0xD1C7, size: 0x8, addend: 0x0, symName: __ZNSt3__117__compressed_pairIP6secretNS_9allocatorIS1_EEEC2B7v160006IDnNS_18__default_init_tagEEEOT_OT0_, symObjAddr: 0xDCC, symBinAddr: 0x1000034C0, symSize: 0x40 }
  - { offsetInCU: 0xD21E, offset: 0xD21E, size: 0x8, addend: 0x0, symName: __ZNSt3__122__compressed_pair_elemIP6secretLi0ELb0EEC2B7v160006IDnvEEOT_, symObjAddr: 0xE0C, symBinAddr: 0x100003500, symSize: 0x1C }
  - { offsetInCU: 0xD25F, offset: 0xD25F, size: 0x8, addend: 0x0, symName: __ZNSt3__122__compressed_pair_elemINS_9allocatorI6secretEELi1ELb1EEC2B7v160006ENS_18__default_init_tagE, symObjAddr: 0xE28, symBinAddr: 0x10000351C, symSize: 0x2C }
  - { offsetInCU: 0xD293, offset: 0xD293, size: 0x8, addend: 0x0, symName: __ZNSt3__19allocatorI6secretEC2B7v160006Ev, symObjAddr: 0xE54, symBinAddr: 0x100003548, symSize: 0x2C }
  - { offsetInCU: 0xD2BC, offset: 0xD2BC, size: 0x8, addend: 0x0, symName: __ZNSt3__116__non_trivial_ifILb1ENS_9allocatorI6secretEEEC2B7v160006Ev, symObjAddr: 0xE80, symBinAddr: 0x100003574, symSize: 0x14 }
  - { offsetInCU: 0xD2E5, offset: 0xD2E5, size: 0x8, addend: 0x0, symName: __ZNSt3__16vectorIdNS_9allocatorIdEEEC2B7v160006Ev, symObjAddr: 0xE94, symBinAddr: 0x100003588, symSize: 0x58 }
  - { offsetInCU: 0xD30E, offset: 0xD30E, size: 0x8, addend: 0x0, symName: __ZNSt3__117__compressed_pairIPdNS_9allocatorIdEEEC1B7v160006IDnNS_18__default_init_tagEEEOT_OT0_, symObjAddr: 0xEEC, symBinAddr: 0x1000035E0, symSize: 0x3C }
  - { offsetInCU: 0xD365, offset: 0xD365, size: 0x8, addend: 0x0, symName: __ZNSt3__117__compressed_pairIPdNS_9allocatorIdEEEC2B7v160006IDnNS_18__default_init_tagEEEOT_OT0_, symObjAddr: 0xF38, symBinAddr: 0x10000362C, symSize: 0x40 }
  - { offsetInCU: 0xD3BC, offset: 0xD3BC, size: 0x8, addend: 0x0, symName: __ZNSt3__122__compressed_pair_elemIPdLi0ELb0EEC2B7v160006IDnvEEOT_, symObjAddr: 0xF78, symBinAddr: 0x10000366C, symSize: 0x1C }
  - { offsetInCU: 0xD3FD, offset: 0xD3FD, size: 0x8, addend: 0x0, symName: __ZNSt3__122__compressed_pair_elemINS_9allocatorIdEELi1ELb1EEC2B7v160006ENS_18__default_init_tagE, symObjAddr: 0xF94, symBinAddr: 0x100003688, symSize: 0x2C }
  - { offsetInCU: 0xD431, offset: 0xD431, size: 0x8, addend: 0x0, symName: __ZNSt3__19allocatorIdEC2B7v160006Ev, symObjAddr: 0xFC0, symBinAddr: 0x1000036B4, symSize: 0x2C }
  - { offsetInCU: 0xD45A, offset: 0xD45A, size: 0x8, addend: 0x0, symName: __ZNSt3__116__non_trivial_ifILb1ENS_9allocatorIdEEEC2B7v160006Ev, symObjAddr: 0xFEC, symBinAddr: 0x1000036E0, symSize: 0x14 }
  - { offsetInCU: 0xD483, offset: 0xD483, size: 0x8, addend: 0x0, symName: __ZNSt3__16vectorI6secretNS_9allocatorIS1_EEED2B7v160006Ev, symObjAddr: 0x1000, symBinAddr: 0x1000036F4, symSize: 0x44 }
  - { offsetInCU: 0xD4AC, offset: 0xD4AC, size: 0x8, addend: 0x0, symName: __ZNSt3__16vectorI6secretNS_9allocatorIS1_EEE16__destroy_vectorC1ERS4_, symObjAddr: 0x1044, symBinAddr: 0x100003738, symSize: 0x34 }
  - { offsetInCU: 0xD4E4, offset: 0xD4E4, size: 0x8, addend: 0x0, symName: __ZNSt3__16vectorI6secretNS_9allocatorIS1_EEE16__destroy_vectorclB7v160006Ev, symObjAddr: 0x1078, symBinAddr: 0x10000376C, symSize: 0x9C }
  - { offsetInCU: 0xD509, offset: 0xD509, size: 0x8, addend: 0x0, symName: __ZNSt3__16vectorI6secretNS_9allocatorIS1_EEE16__destroy_vectorC2ERS4_, symObjAddr: 0x1114, symBinAddr: 0x100003808, symSize: 0x20 }
  - { offsetInCU: 0xD541, offset: 0xD541, size: 0x8, addend: 0x0, symName: __ZNKSt3__16vectorI6secretNS_9allocatorIS1_EEE17__annotate_deleteB7v160006Ev, symObjAddr: 0x1134, symBinAddr: 0x100003828, symSize: 0xB8 }
  - { offsetInCU: 0xD566, offset: 0xD566, size: 0x8, addend: 0x0, symName: __ZNSt3__16vectorI6secretNS_9allocatorIS1_EEE7__clearB7v160006Ev, symObjAddr: 0x11FC, symBinAddr: 0x1000038F0, symSize: 0x28 }
  - { offsetInCU: 0xD58B, offset: 0xD58B, size: 0x8, addend: 0x0, symName: __ZNSt3__116allocator_traitsINS_9allocatorI6secretEEE10deallocateB7v160006ERS3_PS2_m, symObjAddr: 0x1224, symBinAddr: 0x100003918, symSize: 0x34 }
  - { offsetInCU: 0xD5CD, offset: 0xD5CD, size: 0x8, addend: 0x0, symName: __ZNSt3__16vectorI6secretNS_9allocatorIS1_EEE7__allocB7v160006Ev, symObjAddr: 0x1258, symBinAddr: 0x10000394C, symSize: 0x28 }
  - { offsetInCU: 0xD5F2, offset: 0xD5F2, size: 0x8, addend: 0x0, symName: __ZNKSt3__16vectorI6secretNS_9allocatorIS1_EEE8capacityB7v160006Ev, symObjAddr: 0x1280, symBinAddr: 0x100003974, symSize: 0x40 }
  - { offsetInCU: 0xD617, offset: 0xD617, size: 0x8, addend: 0x0, symName: __ZNKSt3__16vectorI6secretNS_9allocatorIS1_EEE31__annotate_contiguous_containerB7v160006EPKvS6_S6_S6_, symObjAddr: 0x12C0, symBinAddr: 0x1000039B4, symSize: 0x20 }
  - { offsetInCU: 0xD668, offset: 0xD668, size: 0x8, addend: 0x0, symName: __ZNKSt3__16vectorI6secretNS_9allocatorIS1_EEE4dataB7v160006Ev, symObjAddr: 0x12E0, symBinAddr: 0x1000039D4, symSize: 0x28 }
  - { offsetInCU: 0xD68D, offset: 0xD68D, size: 0x8, addend: 0x0, symName: __ZNSt3__16vectorI6secretNS_9allocatorIS1_EEE22__base_destruct_at_endB7v160006EPS1_, symObjAddr: 0x131C, symBinAddr: 0x100003A10, symSize: 0x8C }
  - { offsetInCU: 0xD6D0, offset: 0xD6D0, size: 0x8, addend: 0x0, symName: __ZNSt3__116allocator_traitsINS_9allocatorI6secretEEE7destroyB7v160006IS2_vEEvRS3_PT_, symObjAddr: 0x13A8, symBinAddr: 0x100003A9C, symSize: 0x2C }
  - { offsetInCU: 0xD70D, offset: 0xD70D, size: 0x8, addend: 0x0, symName: __ZNSt3__19allocatorI6secretE7destroyB7v160006EPS1_, symObjAddr: 0x13D4, symBinAddr: 0x100003AC8, symSize: 0x14 }
  - { offsetInCU: 0xD740, offset: 0xD740, size: 0x8, addend: 0x0, symName: __ZNSt3__19allocatorI6secretE10deallocateB7v160006EPS1_m, symObjAddr: 0x13E8, symBinAddr: 0x100003ADC, symSize: 0x40 }
  - { offsetInCU: 0xD781, offset: 0xD781, size: 0x8, addend: 0x0, symName: __ZNSt3__117__compressed_pairIP6secretNS_9allocatorIS1_EEE6secondB7v160006Ev, symObjAddr: 0x1550, symBinAddr: 0x100003C44, symSize: 0x24 }
  - { offsetInCU: 0xD7A6, offset: 0xD7A6, size: 0x8, addend: 0x0, symName: __ZNSt3__122__compressed_pair_elemINS_9allocatorI6secretEELi1ELb1EE5__getB7v160006Ev, symObjAddr: 0x1574, symBinAddr: 0x100003C68, symSize: 0x14 }
  - { offsetInCU: 0xD7CB, offset: 0xD7CB, size: 0x8, addend: 0x0, symName: __ZNKSt3__16vectorI6secretNS_9allocatorIS1_EEE9__end_capB7v160006Ev, symObjAddr: 0x1588, symBinAddr: 0x100003C7C, symSize: 0x28 }
  - { offsetInCU: 0xD7F0, offset: 0xD7F0, size: 0x8, addend: 0x0, symName: __ZNKSt3__117__compressed_pairIP6secretNS_9allocatorIS1_EEE5firstB7v160006Ev, symObjAddr: 0x15B0, symBinAddr: 0x100003CA4, symSize: 0x24 }
  - { offsetInCU: 0xD815, offset: 0xD815, size: 0x8, addend: 0x0, symName: __ZNKSt3__122__compressed_pair_elemIP6secretLi0ELb0EE5__getB7v160006Ev, symObjAddr: 0x15D4, symBinAddr: 0x100003CC8, symSize: 0x14 }
  - { offsetInCU: 0xD83A, offset: 0xD83A, size: 0x8, addend: 0x0, symName: __ZNSt3__16vectorIdNS_9allocatorIdEEED2B7v160006Ev, symObjAddr: 0x15E8, symBinAddr: 0x100003CDC, symSize: 0x44 }
  - { offsetInCU: 0xD863, offset: 0xD863, size: 0x8, addend: 0x0, symName: __ZNSt3__16vectorIdNS_9allocatorIdEEE16__destroy_vectorC1ERS3_, symObjAddr: 0x162C, symBinAddr: 0x100003D20, symSize: 0x34 }
  - { offsetInCU: 0xD89B, offset: 0xD89B, size: 0x8, addend: 0x0, symName: __ZNSt3__16vectorIdNS_9allocatorIdEEE16__destroy_vectorclB7v160006Ev, symObjAddr: 0x1660, symBinAddr: 0x100003D54, symSize: 0x9C }
  - { offsetInCU: 0xD8C0, offset: 0xD8C0, size: 0x8, addend: 0x0, symName: __ZNSt3__16vectorIdNS_9allocatorIdEEE16__destroy_vectorC2ERS3_, symObjAddr: 0x16FC, symBinAddr: 0x100003DF0, symSize: 0x20 }
  - { offsetInCU: 0xD8F8, offset: 0xD8F8, size: 0x8, addend: 0x0, symName: __ZNKSt3__16vectorIdNS_9allocatorIdEEE17__annotate_deleteB7v160006Ev, symObjAddr: 0x171C, symBinAddr: 0x100003E10, symSize: 0xB8 }
  - { offsetInCU: 0xD91D, offset: 0xD91D, size: 0x8, addend: 0x0, symName: __ZNSt3__16vectorIdNS_9allocatorIdEEE7__clearB7v160006Ev, symObjAddr: 0x17E4, symBinAddr: 0x100003ED8, symSize: 0x28 }
  - { offsetInCU: 0xD942, offset: 0xD942, size: 0x8, addend: 0x0, symName: __ZNSt3__116allocator_traitsINS_9allocatorIdEEE10deallocateB7v160006ERS2_Pdm, symObjAddr: 0x180C, symBinAddr: 0x100003F00, symSize: 0x34 }
  - { offsetInCU: 0xD984, offset: 0xD984, size: 0x8, addend: 0x0, symName: __ZNSt3__16vectorIdNS_9allocatorIdEEE7__allocB7v160006Ev, symObjAddr: 0x1840, symBinAddr: 0x100003F34, symSize: 0x28 }
  - { offsetInCU: 0xD9A9, offset: 0xD9A9, size: 0x8, addend: 0x0, symName: __ZNKSt3__16vectorIdNS_9allocatorIdEEE8capacityB7v160006Ev, symObjAddr: 0x1868, symBinAddr: 0x100003F5C, symSize: 0x40 }
  - { offsetInCU: 0xD9CE, offset: 0xD9CE, size: 0x8, addend: 0x0, symName: __ZNKSt3__16vectorIdNS_9allocatorIdEEE31__annotate_contiguous_containerB7v160006EPKvS5_S5_S5_, symObjAddr: 0x18A8, symBinAddr: 0x100003F9C, symSize: 0x20 }
  - { offsetInCU: 0xDA1F, offset: 0xDA1F, size: 0x8, addend: 0x0, symName: __ZNKSt3__16vectorIdNS_9allocatorIdEEE4dataB7v160006Ev, symObjAddr: 0x18C8, symBinAddr: 0x100003FBC, symSize: 0x28 }
  - { offsetInCU: 0xDA44, offset: 0xDA44, size: 0x8, addend: 0x0, symName: __ZNSt3__16vectorIdNS_9allocatorIdEEE22__base_destruct_at_endB7v160006EPd, symObjAddr: 0x1904, symBinAddr: 0x100003FF8, symSize: 0x8C }
  - { offsetInCU: 0xDA87, offset: 0xDA87, size: 0x8, addend: 0x0, symName: __ZNSt3__116allocator_traitsINS_9allocatorIdEEE7destroyB7v160006IdvEEvRS2_PT_, symObjAddr: 0x1990, symBinAddr: 0x100004084, symSize: 0x2C }
  - { offsetInCU: 0xDAC4, offset: 0xDAC4, size: 0x8, addend: 0x0, symName: __ZNSt3__19allocatorIdE7destroyB7v160006EPd, symObjAddr: 0x19BC, symBinAddr: 0x1000040B0, symSize: 0x14 }
  - { offsetInCU: 0xDAF7, offset: 0xDAF7, size: 0x8, addend: 0x0, symName: __ZNSt3__19allocatorIdE10deallocateB7v160006EPdm, symObjAddr: 0x19D0, symBinAddr: 0x1000040C4, symSize: 0x40 }
  - { offsetInCU: 0xDB38, offset: 0xDB38, size: 0x8, addend: 0x0, symName: __ZNSt3__117__compressed_pairIPdNS_9allocatorIdEEE6secondB7v160006Ev, symObjAddr: 0x1A10, symBinAddr: 0x100004104, symSize: 0x24 }
  - { offsetInCU: 0xDB5D, offset: 0xDB5D, size: 0x8, addend: 0x0, symName: __ZNSt3__122__compressed_pair_elemINS_9allocatorIdEELi1ELb1EE5__getB7v160006Ev, symObjAddr: 0x1A34, symBinAddr: 0x100004128, symSize: 0x14 }
  - { offsetInCU: 0xDB82, offset: 0xDB82, size: 0x8, addend: 0x0, symName: __ZNKSt3__16vectorIdNS_9allocatorIdEEE9__end_capB7v160006Ev, symObjAddr: 0x1A48, symBinAddr: 0x10000413C, symSize: 0x28 }
  - { offsetInCU: 0xDBA7, offset: 0xDBA7, size: 0x8, addend: 0x0, symName: __ZNKSt3__117__compressed_pairIPdNS_9allocatorIdEEE5firstB7v160006Ev, symObjAddr: 0x1A70, symBinAddr: 0x100004164, symSize: 0x24 }
  - { offsetInCU: 0xDBCC, offset: 0xDBCC, size: 0x8, addend: 0x0, symName: __ZNKSt3__122__compressed_pair_elemIPdLi0ELb0EE5__getB7v160006Ev, symObjAddr: 0x1A94, symBinAddr: 0x100004188, symSize: 0x14 }
  - { offsetInCU: 0xDBF1, offset: 0xDBF1, size: 0x8, addend: 0x0, symName: __ZNSt3__111char_traitsIcE6lengthEPKc, symObjAddr: 0x1C94, symBinAddr: 0x100004388, symSize: 0x34 }
  - { offsetInCU: 0xDC32, offset: 0xDC32, size: 0x8, addend: 0x0, symName: __ZNKSt3__113basic_ostreamIcNS_11char_traitsIcEEE6sentrycvbB7v160006Ev, symObjAddr: 0x1CC8, symBinAddr: 0x1000043BC, symSize: 0x1C }
  - { offsetInCU: 0xDC57, offset: 0xDC57, size: 0x8, addend: 0x0, symName: __ZNSt3__119ostreambuf_iteratorIcNS_11char_traitsIcEEEC1B7v160006ERNS_13basic_ostreamIcS2_EE, symObjAddr: 0x1F24, symBinAddr: 0x100004618, symSize: 0x34 }
  - { offsetInCU: 0xDC8E, offset: 0xDC8E, size: 0x8, addend: 0x0, symName: __ZNKSt3__18ios_base5flagsB7v160006Ev, symObjAddr: 0x1F58, symBinAddr: 0x10000464C, symSize: 0x18 }
  - { offsetInCU: 0xDCB4, offset: 0xDCB4, size: 0x8, addend: 0x0, symName: __ZNKSt3__19basic_iosIcNS_11char_traitsIcEEE4fillB7v160006Ev, symObjAddr: 0x1F70, symBinAddr: 0x100004664, symSize: 0x64 }
  - { offsetInCU: 0xDCDB, offset: 0xDCDB, size: 0x8, addend: 0x0, symName: __ZNKSt3__119ostreambuf_iteratorIcNS_11char_traitsIcEEE6failedB7v160006Ev, symObjAddr: 0x1FD4, symBinAddr: 0x1000046C8, symSize: 0x24 }
  - { offsetInCU: 0xDD00, offset: 0xDD00, size: 0x8, addend: 0x0, symName: __ZNSt3__19basic_iosIcNS_11char_traitsIcEEE8setstateB7v160006Ej, symObjAddr: 0x1FF8, symBinAddr: 0x1000046EC, symSize: 0x2C }
  - { offsetInCU: 0xDD34, offset: 0xDD34, size: 0x8, addend: 0x0, symName: __ZNKSt3__18ios_base5widthB7v160006Ev, symObjAddr: 0x2024, symBinAddr: 0x100004718, symSize: 0x18 }
  - { offsetInCU: 0xDD5B, offset: 0xDD5B, size: 0x8, addend: 0x0, symName: __ZNSt3__115basic_streambufIcNS_11char_traitsIcEEE5sputnB7v160006EPKcl, symObjAddr: 0x203C, symBinAddr: 0x100004730, symSize: 0x3C }
  - { offsetInCU: 0xDD9C, offset: 0xDD9C, size: 0x8, addend: 0x0, symName: __ZNSt3__112basic_stringIcNS_11char_traitsIcEENS_9allocatorIcEEEC1B7v160006Emc, symObjAddr: 0x2078, symBinAddr: 0x10000476C, symSize: 0x3C }
  - { offsetInCU: 0xDDE3, offset: 0xDDE3, size: 0x8, addend: 0x0, symName: __ZNSt3__112basic_stringIcNS_11char_traitsIcEENS_9allocatorIcEEE4dataB7v160006Ev, symObjAddr: 0x20B4, symBinAddr: 0x1000047A8, symSize: 0x28 }
  - { offsetInCU: 0xDE08, offset: 0xDE08, size: 0x8, addend: 0x0, symName: __ZNSt3__18ios_base5widthB7v160006El, symObjAddr: 0x20DC, symBinAddr: 0x1000047D0, symSize: 0x2C }
  - { offsetInCU: 0xDE4D, offset: 0xDE4D, size: 0x8, addend: 0x0, symName: __ZNSt3__112basic_stringIcNS_11char_traitsIcEENS_9allocatorIcEEEC2B7v160006Emc, symObjAddr: 0x2108, symBinAddr: 0x1000047FC, symSize: 0x54 }
  - { offsetInCU: 0xDE94, offset: 0xDE94, size: 0x8, addend: 0x0, symName: __ZNSt3__117__compressed_pairINS_12basic_stringIcNS_11char_traitsIcEENS_9allocatorIcEEE5__repES5_EC1B7v160006INS_18__default_init_tagESA_EEOT_OT0_, symObjAddr: 0x215C, symBinAddr: 0x100004850, symSize: 0x3C }
  - { offsetInCU: 0xDEEB, offset: 0xDEEB, size: 0x8, addend: 0x0, symName: __ZNSt3__117__compressed_pairINS_12basic_stringIcNS_11char_traitsIcEENS_9allocatorIcEEE5__repES5_EC2B7v160006INS_18__default_init_tagESA_EEOT_OT0_, symObjAddr: 0x21A8, symBinAddr: 0x10000489C, symSize: 0x3C }
  - { offsetInCU: 0xDF42, offset: 0xDF42, size: 0x8, addend: 0x0, symName: __ZNSt3__122__compressed_pair_elemINS_12basic_stringIcNS_11char_traitsIcEENS_9allocatorIcEEE5__repELi0ELb0EEC2B7v160006ENS_18__default_init_tagE, symObjAddr: 0x21E4, symBinAddr: 0x1000048D8, symSize: 0x14 }
  - { offsetInCU: 0xDF76, offset: 0xDF76, size: 0x8, addend: 0x0, symName: __ZNSt3__122__compressed_pair_elemINS_9allocatorIcEELi1ELb1EEC2B7v160006ENS_18__default_init_tagE, symObjAddr: 0x21F8, symBinAddr: 0x1000048EC, symSize: 0x2C }
  - { offsetInCU: 0xDFAA, offset: 0xDFAA, size: 0x8, addend: 0x0, symName: __ZNSt3__19allocatorIcEC2B7v160006Ev, symObjAddr: 0x2224, symBinAddr: 0x100004918, symSize: 0x2C }
  - { offsetInCU: 0xDFD3, offset: 0xDFD3, size: 0x8, addend: 0x0, symName: __ZNSt3__116__non_trivial_ifILb1ENS_9allocatorIcEEEC2B7v160006Ev, symObjAddr: 0x2250, symBinAddr: 0x100004944, symSize: 0x14 }
  - { offsetInCU: 0xDFFC, offset: 0xDFFC, size: 0x8, addend: 0x0, symName: __ZNSt3__112basic_stringIcNS_11char_traitsIcEENS_9allocatorIcEEE13__get_pointerB7v160006Ev, symObjAddr: 0x2278, symBinAddr: 0x10000496C, symSize: 0x54 }
  - { offsetInCU: 0xE021, offset: 0xE021, size: 0x8, addend: 0x0, symName: __ZNKSt3__112basic_stringIcNS_11char_traitsIcEENS_9allocatorIcEEE9__is_longB7v160006Ev, symObjAddr: 0x22CC, symBinAddr: 0x1000049C0, symSize: 0x38 }
  - { offsetInCU: 0xE046, offset: 0xE046, size: 0x8, addend: 0x0, symName: __ZNSt3__112basic_stringIcNS_11char_traitsIcEENS_9allocatorIcEEE18__get_long_pointerB7v160006Ev, symObjAddr: 0x2304, symBinAddr: 0x1000049F8, symSize: 0x28 }
  - { offsetInCU: 0xE06B, offset: 0xE06B, size: 0x8, addend: 0x0, symName: __ZNSt3__112basic_stringIcNS_11char_traitsIcEENS_9allocatorIcEEE19__get_short_pointerB7v160006Ev, symObjAddr: 0x232C, symBinAddr: 0x100004A20, symSize: 0x28 }
  - { offsetInCU: 0xE090, offset: 0xE090, size: 0x8, addend: 0x0, symName: __ZNKSt3__117__compressed_pairINS_12basic_stringIcNS_11char_traitsIcEENS_9allocatorIcEEE5__repES5_E5firstB7v160006Ev, symObjAddr: 0x2354, symBinAddr: 0x100004A48, symSize: 0x24 }
  - { offsetInCU: 0xE0B5, offset: 0xE0B5, size: 0x8, addend: 0x0, symName: __ZNKSt3__122__compressed_pair_elemINS_12basic_stringIcNS_11char_traitsIcEENS_9allocatorIcEEE5__repELi0ELb0EE5__getB7v160006Ev, symObjAddr: 0x2378, symBinAddr: 0x100004A6C, symSize: 0x14 }
  - { offsetInCU: 0xE0DA, offset: 0xE0DA, size: 0x8, addend: 0x0, symName: __ZNSt3__117__compressed_pairINS_12basic_stringIcNS_11char_traitsIcEENS_9allocatorIcEEE5__repES5_E5firstB7v160006Ev, symObjAddr: 0x238C, symBinAddr: 0x100004A80, symSize: 0x24 }
  - { offsetInCU: 0xE0FF, offset: 0xE0FF, size: 0x8, addend: 0x0, symName: __ZNSt3__122__compressed_pair_elemINS_12basic_stringIcNS_11char_traitsIcEENS_9allocatorIcEEE5__repELi0ELb0EE5__getB7v160006Ev, symObjAddr: 0x23B0, symBinAddr: 0x100004AA4, symSize: 0x14 }
  - { offsetInCU: 0xE124, offset: 0xE124, size: 0x8, addend: 0x0, symName: __ZNSt3__114pointer_traitsIPcE10pointer_toB7v160006ERc, symObjAddr: 0x23C4, symBinAddr: 0x100004AB8, symSize: 0x14 }
  - { offsetInCU: 0xE147, offset: 0xE147, size: 0x8, addend: 0x0, symName: __ZNSt3__119ostreambuf_iteratorIcNS_11char_traitsIcEEEC2B7v160006ERNS_13basic_ostreamIcS2_EE, symObjAddr: 0x23D8, symBinAddr: 0x100004ACC, symSize: 0x54 }
  - { offsetInCU: 0xE17D, offset: 0xE17D, size: 0x8, addend: 0x0, symName: __ZNKSt3__19basic_iosIcNS_11char_traitsIcEEE5rdbufB7v160006Ev, symObjAddr: 0x242C, symBinAddr: 0x100004B20, symSize: 0x24 }
  - { offsetInCU: 0xE1A4, offset: 0xE1A4, size: 0x8, addend: 0x0, symName: __ZNKSt3__18ios_base5rdbufB7v160006Ev, symObjAddr: 0x2450, symBinAddr: 0x100004B44, symSize: 0x18 }
  - { offsetInCU: 0xE1C9, offset: 0xE1C9, size: 0x8, addend: 0x0, symName: __ZNSt3__111char_traitsIcE11eq_int_typeEii, symObjAddr: 0x2468, symBinAddr: 0x100004B5C, symSize: 0x28 }
  - { offsetInCU: 0xE1FA, offset: 0xE1FA, size: 0x8, addend: 0x0, symName: __ZNSt3__111char_traitsIcE3eofEv, symObjAddr: 0x2490, symBinAddr: 0x100004B84, symSize: 0x8 }
  - { offsetInCU: 0xE20D, offset: 0xE20D, size: 0x8, addend: 0x0, symName: __ZNKSt3__19basic_iosIcNS_11char_traitsIcEEE5widenB7v160006Ec, symObjAddr: 0x2498, symBinAddr: 0x100004B8C, symSize: 0x84 }
  - { offsetInCU: 0xE27A, offset: 0xE27A, size: 0x8, addend: 0x0, symName: __ZNKSt3__15ctypeIcE5widenB7v160006Ec, symObjAddr: 0x2548, symBinAddr: 0x100004C3C, symSize: 0x38 }
  - { offsetInCU: 0xE2AD, offset: 0xE2AD, size: 0x8, addend: 0x0, symName: __ZNSt3__18ios_base8setstateB7v160006Ej, symObjAddr: 0x2580, symBinAddr: 0x100004C74, symSize: 0x34 }
  - { offsetInCU: 0xE2E3, offset: 0xE2E3, size: 0x8, addend: 0x0, symName: __ZNSt3__16vectorIdNS_9allocatorIdEEE9__end_capB7v160006Ev, symObjAddr: 0x25D8, symBinAddr: 0x100004CCC, symSize: 0x28 }
  - { offsetInCU: 0xE30D, offset: 0xE30D, size: 0x8, addend: 0x0, symName: __ZNSt3__16vectorIdNS_9allocatorIdEEE22__construct_one_at_endB7v160006IJdEEEvDpOT_, symObjAddr: 0x2600, symBinAddr: 0x100004CF4, symSize: 0x90 }
  - { offsetInCU: 0xE35A, offset: 0xE35A, size: 0x8, addend: 0x0, symName: __ZNSt3__16vectorIdNS_9allocatorIdEEE21__push_back_slow_pathIdEEvOT_, symObjAddr: 0x2690, symBinAddr: 0x100004D84, symSize: 0xD8 }
  - { offsetInCU: 0xE3B7, offset: 0xE3B7, size: 0x8, addend: 0x0, symName: __ZNSt3__117__compressed_pairIPdNS_9allocatorIdEEE5firstB7v160006Ev, symObjAddr: 0x2768, symBinAddr: 0x100004E5C, symSize: 0x24 }
  - { offsetInCU: 0xE3DC, offset: 0xE3DC, size: 0x8, addend: 0x0, symName: __ZNSt3__122__compressed_pair_elemIPdLi0ELb0EE5__getB7v160006Ev, symObjAddr: 0x278C, symBinAddr: 0x100004E80, symSize: 0x14 }
  - { offsetInCU: 0xE41A, offset: 0xE41A, size: 0x8, addend: 0x0, symName: __ZNSt3__16vectorIdNS_9allocatorIdEEE21_ConstructTransactionC1B7v160006ERS3_m, symObjAddr: 0x27A0, symBinAddr: 0x100004E94, symSize: 0x3C }
  - { offsetInCU: 0xE461, offset: 0xE461, size: 0x8, addend: 0x0, symName: __ZNSt3__116allocator_traitsINS_9allocatorIdEEE9constructB7v160006IdJdEvEEvRS2_PT_DpOT0_, symObjAddr: 0x27DC, symBinAddr: 0x100004ED0, symSize: 0x34 }
  - { offsetInCU: 0xE4B8, offset: 0xE4B8, size: 0x8, addend: 0x0, symName: __ZNSt3__16vectorIdNS_9allocatorIdEEE21_ConstructTransactionD1B7v160006Ev, symObjAddr: 0x2810, symBinAddr: 0x100004F04, symSize: 0x2C }
  - { offsetInCU: 0xE4E1, offset: 0xE4E1, size: 0x8, addend: 0x0, symName: __ZNSt3__16vectorIdNS_9allocatorIdEEE21_ConstructTransactionC2B7v160006ERS3_m, symObjAddr: 0x283C, symBinAddr: 0x100004F30, symSize: 0x44 }
  - { offsetInCU: 0xE528, offset: 0xE528, size: 0x8, addend: 0x0, symName: __ZNSt3__19allocatorIdE9constructB7v160006IdJdEEEvPT_DpOT0_, symObjAddr: 0x2880, symBinAddr: 0x100004F74, symSize: 0x28 }
  - { offsetInCU: 0xE57D, offset: 0xE57D, size: 0x8, addend: 0x0, symName: __ZNSt3__16vectorIdNS_9allocatorIdEEE21_ConstructTransactionD2B7v160006Ev, symObjAddr: 0x28A8, symBinAddr: 0x100004F9C, symSize: 0x20 }
  - { offsetInCU: 0xE5A5, offset: 0xE5A5, size: 0x8, addend: 0x0, symName: __ZNKSt3__16vectorIdNS_9allocatorIdEEE11__recommendB7v160006Em, symObjAddr: 0x28C8, symBinAddr: 0x100004FBC, symSize: 0xB4 }
  - { offsetInCU: 0xE5F9, offset: 0xE5F9, size: 0x8, addend: 0x0, symName: __ZNSt3__114__split_bufferIdRNS_9allocatorIdEEEC1EmmS3_, symObjAddr: 0x297C, symBinAddr: 0x100005070, symSize: 0x44 }
  - { offsetInCU: 0xE64E, offset: 0xE64E, size: 0x8, addend: 0x0, symName: __ZNSt3__114__split_bufferIdRNS_9allocatorIdEEED1Ev, symObjAddr: 0x2AD8, symBinAddr: 0x1000051CC, symSize: 0x2C }
  - { offsetInCU: 0xE678, offset: 0xE678, size: 0x8, addend: 0x0, symName: __ZNKSt3__16vectorIdNS_9allocatorIdEEE8max_sizeEv, symObjAddr: 0x2B04, symBinAddr: 0x1000051F8, symSize: 0x60 }
  - { offsetInCU: 0xE69F, offset: 0xE69F, size: 0x8, addend: 0x0, symName: __ZNKSt3__16vectorIdNS_9allocatorIdEEE20__throw_length_errorB7v160006Ev, symObjAddr: 0x2B64, symBinAddr: 0x100005258, symSize: 0x1C }
  - { offsetInCU: 0xE6CE, offset: 0xE6CE, size: 0x8, addend: 0x0, symName: __ZNSt3__116allocator_traitsINS_9allocatorIdEEE8max_sizeB7v160006IS2_vEEmRKS2_, symObjAddr: 0x2BD8, symBinAddr: 0x1000052CC, symSize: 0x24 }
  - { offsetInCU: 0xE6FC, offset: 0xE6FC, size: 0x8, addend: 0x0, symName: __ZNKSt3__16vectorIdNS_9allocatorIdEEE7__allocB7v160006Ev, symObjAddr: 0x2BFC, symBinAddr: 0x1000052F0, symSize: 0x28 }
  - { offsetInCU: 0xE721, offset: 0xE721, size: 0x8, addend: 0x0, symName: __ZNSt3__114numeric_limitsIlE3maxB7v160006Ev, symObjAddr: 0x2C24, symBinAddr: 0x100005318, symSize: 0x14 }
  - { offsetInCU: 0xE749, offset: 0xE749, size: 0x8, addend: 0x0, symName: __ZNKSt3__16__lessImmEclB7v160006ERKmS3_, symObjAddr: 0x2C8C, symBinAddr: 0x100005380, symSize: 0x34 }
  - { offsetInCU: 0xE78A, offset: 0xE78A, size: 0x8, addend: 0x0, symName: __ZNKSt3__19allocatorIdE8max_sizeB7v160006Ev, symObjAddr: 0x2CC0, symBinAddr: 0x1000053B4, symSize: 0x14 }
  - { offsetInCU: 0xE7AF, offset: 0xE7AF, size: 0x8, addend: 0x0, symName: __ZNKSt3__117__compressed_pairIPdNS_9allocatorIdEEE6secondB7v160006Ev, symObjAddr: 0x2CD4, symBinAddr: 0x1000053C8, symSize: 0x24 }
  - { offsetInCU: 0xE7D4, offset: 0xE7D4, size: 0x8, addend: 0x0, symName: __ZNKSt3__122__compressed_pair_elemINS_9allocatorIdEELi1ELb1EE5__getB7v160006Ev, symObjAddr: 0x2CF8, symBinAddr: 0x1000053EC, symSize: 0x14 }
  - { offsetInCU: 0xE7F9, offset: 0xE7F9, size: 0x8, addend: 0x0, symName: __ZNSt3__123__libcpp_numeric_limitsIlLb1EE3maxB7v160006Ev, symObjAddr: 0x2D0C, symBinAddr: 0x100005400, symSize: 0x8 }
  - { offsetInCU: 0xE80D, offset: 0xE80D, size: 0x8, addend: 0x0, symName: __ZNSt12length_errorC1B7v160006EPKc, symObjAddr: 0x2D78, symBinAddr: 0x10000546C, symSize: 0x34 }
  - { offsetInCU: 0xE844, offset: 0xE844, size: 0x8, addend: 0x0, symName: __ZNSt12length_errorC2B7v160006EPKc, symObjAddr: 0x2DAC, symBinAddr: 0x1000054A0, symSize: 0x4C }
  - { offsetInCU: 0xE87B, offset: 0xE87B, size: 0x8, addend: 0x0, symName: __ZNSt3__114__split_bufferIdRNS_9allocatorIdEEEC2EmmS3_, symObjAddr: 0x2E4C, symBinAddr: 0x100005540, symSize: 0xD4 }
  - { offsetInCU: 0xE8ED, offset: 0xE8ED, size: 0x8, addend: 0x0, symName: __ZNSt3__117__compressed_pairIPdRNS_9allocatorIdEEEC1B7v160006IDnS4_EEOT_OT0_, symObjAddr: 0x2F20, symBinAddr: 0x100005614, symSize: 0x3C }
  - { offsetInCU: 0xE944, offset: 0xE944, size: 0x8, addend: 0x0, symName: __ZNSt3__114__split_bufferIdRNS_9allocatorIdEEE7__allocB7v160006Ev, symObjAddr: 0x2F9C, symBinAddr: 0x100005690, symSize: 0x28 }
  - { offsetInCU: 0xE969, offset: 0xE969, size: 0x8, addend: 0x0, symName: __ZNSt3__114__split_bufferIdRNS_9allocatorIdEEE9__end_capB7v160006Ev, symObjAddr: 0x2FC4, symBinAddr: 0x1000056B8, symSize: 0x28 }
  - { offsetInCU: 0xE98E, offset: 0xE98E, size: 0x8, addend: 0x0, symName: __ZNSt3__117__compressed_pairIPdRNS_9allocatorIdEEEC2B7v160006IDnS4_EEOT_OT0_, symObjAddr: 0x2FEC, symBinAddr: 0x1000056E0, symSize: 0x48 }
  - { offsetInCU: 0xE9E5, offset: 0xE9E5, size: 0x8, addend: 0x0, symName: __ZNSt3__122__compressed_pair_elemIRNS_9allocatorIdEELi1ELb0EEC2B7v160006IS3_vEEOT_, symObjAddr: 0x3034, symBinAddr: 0x100005728, symSize: 0x20 }
  - { offsetInCU: 0xEA26, offset: 0xEA26, size: 0x8, addend: 0x0, symName: __ZNSt3__19allocatorIdE8allocateB7v160006Em, symObjAddr: 0x3054, symBinAddr: 0x100005748, symSize: 0x58 }
  - { offsetInCU: 0xEA59, offset: 0xEA59, size: 0x8, addend: 0x0, symName: __ZNSt3__117__compressed_pairIPdRNS_9allocatorIdEEE6secondB7v160006Ev, symObjAddr: 0x3190, symBinAddr: 0x100005884, symSize: 0x28 }
  - { offsetInCU: 0xEA7E, offset: 0xEA7E, size: 0x8, addend: 0x0, symName: __ZNSt3__122__compressed_pair_elemIRNS_9allocatorIdEELi1ELb0EE5__getB7v160006Ev, symObjAddr: 0x31B8, symBinAddr: 0x1000058AC, symSize: 0x18 }
  - { offsetInCU: 0xEAA3, offset: 0xEAA3, size: 0x8, addend: 0x0, symName: __ZNSt3__117__compressed_pairIPdRNS_9allocatorIdEEE5firstB7v160006Ev, symObjAddr: 0x31D0, symBinAddr: 0x1000058C4, symSize: 0x24 }
  - { offsetInCU: 0xEAC8, offset: 0xEAC8, size: 0x8, addend: 0x0, symName: __ZNSt3__116reverse_iteratorIPdEC1B7v160006ES1_, symObjAddr: 0x326C, symBinAddr: 0x100005960, symSize: 0x34 }
  - { offsetInCU: 0xEAFF, offset: 0xEAFF, size: 0x8, addend: 0x0, symName: __ZNKSt3__116reverse_iteratorIPdE4baseB7v160006Ev, symObjAddr: 0x32A0, symBinAddr: 0x100005994, symSize: 0x18 }
  - { offsetInCU: 0xEB24, offset: 0xEB24, size: 0x8, addend: 0x0, symName: __ZNKSt3__16vectorIdNS_9allocatorIdEEE14__annotate_newB7v160006Em, symObjAddr: 0x32F4, symBinAddr: 0x1000059E8, symSize: 0xAC }
  - { offsetInCU: 0xEB7B, offset: 0xEB7B, size: 0x8, addend: 0x0, symName: __ZNKSt3__111__move_loopINS_17_ClassicAlgPolicyEEclB7v160006INS_16reverse_iteratorIPdEES6_S6_EENS_4pairIT_T1_EES8_T0_S9_, symObjAddr: 0x36A0, symBinAddr: 0x100005D94, symSize: 0xA0 }
  - { offsetInCU: 0xEBE5, offset: 0xEBE5, size: 0x8, addend: 0x0, symName: __ZNSt3__18_IterOpsINS_17_ClassicAlgPolicyEE11__iter_moveB7v160006IRNS_16reverse_iteratorIPdEEEENS_9enable_ifIXsr12is_referenceIDTdeclsr3stdE7declvalIRT_EEEEE5valueEDTclsr3stdE4movedeclsr3stdE7declvalISA_EEEEE4typeEOS9_, symObjAddr: 0x38D4, symBinAddr: 0x100005FC8, symSize: 0x28 }
  - { offsetInCU: 0xEC11, offset: 0xEC11, size: 0x8, addend: 0x0, symName: __ZNKSt3__116reverse_iteratorIPdEdeB7v160006Ev, symObjAddr: 0x38FC, symBinAddr: 0x100005FF0, symSize: 0x28 }
  - { offsetInCU: 0xEC44, offset: 0xEC44, size: 0x8, addend: 0x0, symName: __ZNSt3__116reverse_iteratorIPdEppB7v160006Ev, symObjAddr: 0x3924, symBinAddr: 0x100006018, symSize: 0x20 }
  - { offsetInCU: 0xEC69, offset: 0xEC69, size: 0x8, addend: 0x0, symName: __ZNSt3__18_IterOpsINS_17_ClassicAlgPolicyEE25__validate_iter_referenceB7v160006IRNS_16reverse_iteratorIPdEEEEvv, symObjAddr: 0x3944, symBinAddr: 0x100006038, symSize: 0x4 }
  - { offsetInCU: 0xEC87, offset: 0xEC87, size: 0x8, addend: 0x0, symName: __ZNSt3__118__unwrap_iter_implINS_16reverse_iteratorIPdEELb0EE8__unwrapB7v160006ES3_, symObjAddr: 0x3948, symBinAddr: 0x10000603C, symSize: 0x24 }
  - { offsetInCU: 0xECAF, offset: 0xECAF, size: 0x8, addend: 0x0, symName: __ZNSt3__14pairINS_16reverse_iteratorIPdEES3_EC1B7v160006IS3_S3_LPv0EEEOT_OT0_, symObjAddr: 0x396C, symBinAddr: 0x100006060, symSize: 0x3C }
  - { offsetInCU: 0xED0C, offset: 0xED0C, size: 0x8, addend: 0x0, symName: __ZNSt3__14pairINS_16reverse_iteratorIPdEES3_EC2B7v160006IS3_S3_LPv0EEEOT_OT0_, symObjAddr: 0x39A8, symBinAddr: 0x10000609C, symSize: 0x34 }
  - { offsetInCU: 0xED69, offset: 0xED69, size: 0x8, addend: 0x0, symName: __ZNSt3__118__unwrap_iter_implINS_16reverse_iteratorIPdEELb0EE8__rewrapB7v160006ES3_S3_, symObjAddr: 0x39DC, symBinAddr: 0x1000060D0, symSize: 0x2C }
  - { offsetInCU: 0xED97, offset: 0xED97, size: 0x8, addend: 0x0, symName: __ZNSt3__116reverse_iteratorIPdEC2B7v160006ES1_, symObjAddr: 0x3A08, symBinAddr: 0x1000060FC, symSize: 0x28 }
  - { offsetInCU: 0xEDCE, offset: 0xEDCE, size: 0x8, addend: 0x0, symName: __ZNSt3__114__split_bufferIdRNS_9allocatorIdEEED2Ev, symObjAddr: 0x3A30, symBinAddr: 0x100006124, symSize: 0x8C }
  - { offsetInCU: 0xEDF9, offset: 0xEDF9, size: 0x8, addend: 0x0, symName: __ZNSt3__114__split_bufferIdRNS_9allocatorIdEEE5clearB7v160006Ev, symObjAddr: 0x3ABC, symBinAddr: 0x1000061B0, symSize: 0x28 }
  - { offsetInCU: 0xEE1E, offset: 0xEE1E, size: 0x8, addend: 0x0, symName: __ZNKSt3__114__split_bufferIdRNS_9allocatorIdEEE8capacityB7v160006Ev, symObjAddr: 0x3AE4, symBinAddr: 0x1000061D8, symSize: 0x40 }
  - { offsetInCU: 0xEE43, offset: 0xEE43, size: 0x8, addend: 0x0, symName: __ZNSt3__114__split_bufferIdRNS_9allocatorIdEEE17__destruct_at_endB7v160006EPd, symObjAddr: 0x3B24, symBinAddr: 0x100006218, symSize: 0x2C }
  - { offsetInCU: 0xEE75, offset: 0xEE75, size: 0x8, addend: 0x0, symName: __ZNSt3__114__split_bufferIdRNS_9allocatorIdEEE17__destruct_at_endB7v160006EPdNS_17integral_constantIbLb0EEE, symObjAddr: 0x3B50, symBinAddr: 0x100006244, symSize: 0x80 }
  - { offsetInCU: 0xEEB5, offset: 0xEEB5, size: 0x8, addend: 0x0, symName: __ZNKSt3__114__split_bufferIdRNS_9allocatorIdEEE9__end_capB7v160006Ev, symObjAddr: 0x3BD0, symBinAddr: 0x1000062C4, symSize: 0x28 }
  - { offsetInCU: 0xEEDA, offset: 0xEEDA, size: 0x8, addend: 0x0, symName: __ZNKSt3__117__compressed_pairIPdRNS_9allocatorIdEEE5firstB7v160006Ev, symObjAddr: 0x3BF8, symBinAddr: 0x1000062EC, symSize: 0x24 }
  - { offsetInCU: 0xEEFF, offset: 0xEEFF, size: 0x8, addend: 0x0, symName: __ZNSt3__16vectorI6secretNS_9allocatorIS1_EEE9__end_capB7v160006Ev, symObjAddr: 0x3C1C, symBinAddr: 0x100006310, symSize: 0x28 }
  - { offsetInCU: 0xEF24, offset: 0xEF24, size: 0x8, addend: 0x0, symName: __ZNSt3__16vectorI6secretNS_9allocatorIS1_EEE22__construct_one_at_endB7v160006IJRKS1_EEEvDpOT_, symObjAddr: 0x3C44, symBinAddr: 0x100006338, symSize: 0x90 }
  - { offsetInCU: 0xEF71, offset: 0xEF71, size: 0x8, addend: 0x0, symName: __ZNSt3__16vectorI6secretNS_9allocatorIS1_EEE21__push_back_slow_pathIRKS1_EEvOT_, symObjAddr: 0x3CD4, symBinAddr: 0x1000063C8, symSize: 0xD8 }
  - { offsetInCU: 0xEFCE, offset: 0xEFCE, size: 0x8, addend: 0x0, symName: __ZNSt3__117__compressed_pairIP6secretNS_9allocatorIS1_EEE5firstB7v160006Ev, symObjAddr: 0x3DAC, symBinAddr: 0x1000064A0, symSize: 0x24 }
  - { offsetInCU: 0xEFF3, offset: 0xEFF3, size: 0x8, addend: 0x0, symName: __ZNSt3__122__compressed_pair_elemIP6secretLi0ELb0EE5__getB7v160006Ev, symObjAddr: 0x3DD0, symBinAddr: 0x1000064C4, symSize: 0x14 }
  - { offsetInCU: 0xF031, offset: 0xF031, size: 0x8, addend: 0x0, symName: __ZNSt3__16vectorI6secretNS_9allocatorIS1_EEE21_ConstructTransactionC1B7v160006ERS4_m, symObjAddr: 0x3DE4, symBinAddr: 0x1000064D8, symSize: 0x3C }
  - { offsetInCU: 0xF078, offset: 0xF078, size: 0x8, addend: 0x0, symName: __ZNSt3__116allocator_traitsINS_9allocatorI6secretEEE9constructB7v160006IS2_JRKS2_EvEEvRS3_PT_DpOT0_, symObjAddr: 0x3E20, symBinAddr: 0x100006514, symSize: 0x34 }
  - { offsetInCU: 0xF0CF, offset: 0xF0CF, size: 0x8, addend: 0x0, symName: __ZNSt3__16vectorI6secretNS_9allocatorIS1_EEE21_ConstructTransactionD1B7v160006Ev, symObjAddr: 0x3E54, symBinAddr: 0x100006548, symSize: 0x2C }
  - { offsetInCU: 0xF0F8, offset: 0xF0F8, size: 0x8, addend: 0x0, symName: __ZNSt3__16vectorI6secretNS_9allocatorIS1_EEE21_ConstructTransactionC2B7v160006ERS4_m, symObjAddr: 0x3E80, symBinAddr: 0x100006574, symSize: 0x44 }
  - { offsetInCU: 0xF13F, offset: 0xF13F, size: 0x8, addend: 0x0, symName: __ZNSt3__19allocatorI6secretE9constructB7v160006IS1_JRKS1_EEEvPT_DpOT0_, symObjAddr: 0x3EC4, symBinAddr: 0x1000065B8, symSize: 0x28 }
  - { offsetInCU: 0xF194, offset: 0xF194, size: 0x8, addend: 0x0, symName: __ZNSt3__16vectorI6secretNS_9allocatorIS1_EEE21_ConstructTransactionD2B7v160006Ev, symObjAddr: 0x3EEC, symBinAddr: 0x1000065E0, symSize: 0x20 }
  - { offsetInCU: 0xF1BC, offset: 0xF1BC, size: 0x8, addend: 0x0, symName: __ZNKSt3__16vectorI6secretNS_9allocatorIS1_EEE11__recommendB7v160006Em, symObjAddr: 0x3F0C, symBinAddr: 0x100006600, symSize: 0xB4 }
  - { offsetInCU: 0xF210, offset: 0xF210, size: 0x8, addend: 0x0, symName: __ZNSt3__114__split_bufferI6secretRNS_9allocatorIS1_EEEC1EmmS4_, symObjAddr: 0x3FC0, symBinAddr: 0x1000066B4, symSize: 0x44 }
  - { offsetInCU: 0xF265, offset: 0xF265, size: 0x8, addend: 0x0, symName: __ZNSt3__114__split_bufferI6secretRNS_9allocatorIS1_EEED1Ev, symObjAddr: 0x411C, symBinAddr: 0x100006810, symSize: 0x2C }
  - { offsetInCU: 0xF28F, offset: 0xF28F, size: 0x8, addend: 0x0, symName: __ZNKSt3__16vectorI6secretNS_9allocatorIS1_EEE8max_sizeEv, symObjAddr: 0x4148, symBinAddr: 0x10000683C, symSize: 0x60 }
  - { offsetInCU: 0xF2B6, offset: 0xF2B6, size: 0x8, addend: 0x0, symName: __ZNKSt3__16vectorI6secretNS_9allocatorIS1_EEE20__throw_length_errorB7v160006Ev, symObjAddr: 0x41A8, symBinAddr: 0x10000689C, symSize: 0x1C }
  - { offsetInCU: 0xF2E5, offset: 0xF2E5, size: 0x8, addend: 0x0, symName: __ZNSt3__116allocator_traitsINS_9allocatorI6secretEEE8max_sizeB7v160006IS3_vEEmRKS3_, symObjAddr: 0x41C4, symBinAddr: 0x1000068B8, symSize: 0x24 }
  - { offsetInCU: 0xF313, offset: 0xF313, size: 0x8, addend: 0x0, symName: __ZNKSt3__16vectorI6secretNS_9allocatorIS1_EEE7__allocB7v160006Ev, symObjAddr: 0x41E8, symBinAddr: 0x1000068DC, symSize: 0x28 }
  - { offsetInCU: 0xF338, offset: 0xF338, size: 0x8, addend: 0x0, symName: __ZNKSt3__19allocatorI6secretE8max_sizeB7v160006Ev, symObjAddr: 0x4210, symBinAddr: 0x100006904, symSize: 0x14 }
  - { offsetInCU: 0xF35D, offset: 0xF35D, size: 0x8, addend: 0x0, symName: __ZNKSt3__117__compressed_pairIP6secretNS_9allocatorIS1_EEE6secondB7v160006Ev, symObjAddr: 0x4224, symBinAddr: 0x100006918, symSize: 0x24 }
  - { offsetInCU: 0xF382, offset: 0xF382, size: 0x8, addend: 0x0, symName: __ZNKSt3__122__compressed_pair_elemINS_9allocatorI6secretEELi1ELb1EE5__getB7v160006Ev, symObjAddr: 0x4248, symBinAddr: 0x10000693C, symSize: 0x14 }
  - { offsetInCU: 0xF3A7, offset: 0xF3A7, size: 0x8, addend: 0x0, symName: __ZNSt3__114__split_bufferI6secretRNS_9allocatorIS1_EEEC2EmmS4_, symObjAddr: 0x425C, symBinAddr: 0x100006950, symSize: 0xD4 }
  - { offsetInCU: 0xF419, offset: 0xF419, size: 0x8, addend: 0x0, symName: __ZNSt3__117__compressed_pairIP6secretRNS_9allocatorIS1_EEEC1B7v160006IDnS5_EEOT_OT0_, symObjAddr: 0x4330, symBinAddr: 0x100006A24, symSize: 0x3C }
  - { offsetInCU: 0xF470, offset: 0xF470, size: 0x8, addend: 0x0, symName: __ZNSt3__114__split_bufferI6secretRNS_9allocatorIS1_EEE7__allocB7v160006Ev, symObjAddr: 0x43AC, symBinAddr: 0x100006AA0, symSize: 0x28 }
  - { offsetInCU: 0xF495, offset: 0xF495, size: 0x8, addend: 0x0, symName: __ZNSt3__114__split_bufferI6secretRNS_9allocatorIS1_EEE9__end_capB7v160006Ev, symObjAddr: 0x43D4, symBinAddr: 0x100006AC8, symSize: 0x28 }
  - { offsetInCU: 0xF4BA, offset: 0xF4BA, size: 0x8, addend: 0x0, symName: __ZNSt3__117__compressed_pairIP6secretRNS_9allocatorIS1_EEEC2B7v160006IDnS5_EEOT_OT0_, symObjAddr: 0x43FC, symBinAddr: 0x100006AF0, symSize: 0x48 }
  - { offsetInCU: 0xF511, offset: 0xF511, size: 0x8, addend: 0x0, symName: __ZNSt3__122__compressed_pair_elemIRNS_9allocatorI6secretEELi1ELb0EEC2B7v160006IS4_vEEOT_, symObjAddr: 0x4444, symBinAddr: 0x100006B38, symSize: 0x20 }
  - { offsetInCU: 0xF552, offset: 0xF552, size: 0x8, addend: 0x0, symName: __ZNSt3__19allocatorI6secretE8allocateB7v160006Em, symObjAddr: 0x4464, symBinAddr: 0x100006B58, symSize: 0x58 }
  - { offsetInCU: 0xF585, offset: 0xF585, size: 0x8, addend: 0x0, symName: __ZNSt3__117__compressed_pairIP6secretRNS_9allocatorIS1_EEE6secondB7v160006Ev, symObjAddr: 0x44BC, symBinAddr: 0x100006BB0, symSize: 0x28 }
  - { offsetInCU: 0xF5AA, offset: 0xF5AA, size: 0x8, addend: 0x0, symName: __ZNSt3__122__compressed_pair_elemIRNS_9allocatorI6secretEELi1ELb0EE5__getB7v160006Ev, symObjAddr: 0x44E4, symBinAddr: 0x100006BD8, symSize: 0x18 }
  - { offsetInCU: 0xF5CF, offset: 0xF5CF, size: 0x8, addend: 0x0, symName: __ZNSt3__117__compressed_pairIP6secretRNS_9allocatorIS1_EEE5firstB7v160006Ev, symObjAddr: 0x44FC, symBinAddr: 0x100006BF0, symSize: 0x24 }
  - { offsetInCU: 0xF5F4, offset: 0xF5F4, size: 0x8, addend: 0x0, symName: __ZNSt3__116reverse_iteratorIP6secretEC1B7v160006ES2_, symObjAddr: 0x4598, symBinAddr: 0x100006C8C, symSize: 0x34 }
  - { offsetInCU: 0xF62B, offset: 0xF62B, size: 0x8, addend: 0x0, symName: __ZNKSt3__116reverse_iteratorIP6secretE4baseB7v160006Ev, symObjAddr: 0x45CC, symBinAddr: 0x100006CC0, symSize: 0x18 }
  - { offsetInCU: 0xF650, offset: 0xF650, size: 0x8, addend: 0x0, symName: __ZNKSt3__16vectorI6secretNS_9allocatorIS1_EEE14__annotate_newB7v160006Em, symObjAddr: 0x4620, symBinAddr: 0x100006D14, symSize: 0xAC }
  - { offsetInCU: 0xF69D, offset: 0xF69D, size: 0x8, addend: 0x0, symName: __ZNKSt3__111__move_loopINS_17_ClassicAlgPolicyEEclB7v160006INS_16reverse_iteratorIP6secretEES7_S7_EENS_4pairIT_T1_EES9_T0_SA_, symObjAddr: 0x49CC, symBinAddr: 0x1000070C0, symSize: 0xA0 }
  - { offsetInCU: 0xF70C, offset: 0xF70C, size: 0x8, addend: 0x0, symName: __ZNSt3__18_IterOpsINS_17_ClassicAlgPolicyEE11__iter_moveB7v160006IRNS_16reverse_iteratorIP6secretEEEENS_9enable_ifIXsr12is_referenceIDTdeclsr3stdE7declvalIRT_EEEEE5valueEDTclsr3stdE4movedeclsr3stdE7declvalISB_EEEEE4typeEOSA_, symObjAddr: 0x4C00, symBinAddr: 0x1000072F4, symSize: 0x28 }
  - { offsetInCU: 0xF738, offset: 0xF738, size: 0x8, addend: 0x0, symName: __ZNKSt3__116reverse_iteratorIP6secretEdeB7v160006Ev, symObjAddr: 0x4C28, symBinAddr: 0x10000731C, symSize: 0x28 }
  - { offsetInCU: 0xF76B, offset: 0xF76B, size: 0x8, addend: 0x0, symName: __ZNSt3__116reverse_iteratorIP6secretEppB7v160006Ev, symObjAddr: 0x4C50, symBinAddr: 0x100007344, symSize: 0x20 }
  - { offsetInCU: 0xF790, offset: 0xF790, size: 0x8, addend: 0x0, symName: __ZNSt3__18_IterOpsINS_17_ClassicAlgPolicyEE25__validate_iter_referenceB7v160006IRNS_16reverse_iteratorIP6secretEEEEvv, symObjAddr: 0x4C70, symBinAddr: 0x100007364, symSize: 0x4 }
  - { offsetInCU: 0xF7AE, offset: 0xF7AE, size: 0x8, addend: 0x0, symName: __ZNSt3__118__unwrap_iter_implINS_16reverse_iteratorIP6secretEELb0EE8__unwrapB7v160006ES4_, symObjAddr: 0x4C74, symBinAddr: 0x100007368, symSize: 0x24 }
  - { offsetInCU: 0xF7D6, offset: 0xF7D6, size: 0x8, addend: 0x0, symName: __ZNSt3__14pairINS_16reverse_iteratorIP6secretEES4_EC1B7v160006IS4_S4_LPv0EEEOT_OT0_, symObjAddr: 0x4C98, symBinAddr: 0x10000738C, symSize: 0x3C }
  - { offsetInCU: 0xF833, offset: 0xF833, size: 0x8, addend: 0x0, symName: __ZNSt3__14pairINS_16reverse_iteratorIP6secretEES4_EC2B7v160006IS4_S4_LPv0EEEOT_OT0_, symObjAddr: 0x4CD4, symBinAddr: 0x1000073C8, symSize: 0x34 }
  - { offsetInCU: 0xF890, offset: 0xF890, size: 0x8, addend: 0x0, symName: __ZNSt3__118__unwrap_iter_implINS_16reverse_iteratorIP6secretEELb0EE8__rewrapB7v160006ES4_S4_, symObjAddr: 0x4D08, symBinAddr: 0x1000073FC, symSize: 0x2C }
  - { offsetInCU: 0xF8BE, offset: 0xF8BE, size: 0x8, addend: 0x0, symName: __ZNSt3__116reverse_iteratorIP6secretEC2B7v160006ES2_, symObjAddr: 0x4D34, symBinAddr: 0x100007428, symSize: 0x28 }
  - { offsetInCU: 0xF8F5, offset: 0xF8F5, size: 0x8, addend: 0x0, symName: __ZNSt3__114__split_bufferI6secretRNS_9allocatorIS1_EEED2Ev, symObjAddr: 0x4D5C, symBinAddr: 0x100007450, symSize: 0x8C }
  - { offsetInCU: 0xF920, offset: 0xF920, size: 0x8, addend: 0x0, symName: __ZNSt3__114__split_bufferI6secretRNS_9allocatorIS1_EEE5clearB7v160006Ev, symObjAddr: 0x4DE8, symBinAddr: 0x1000074DC, symSize: 0x28 }
  - { offsetInCU: 0xF945, offset: 0xF945, size: 0x8, addend: 0x0, symName: __ZNKSt3__114__split_bufferI6secretRNS_9allocatorIS1_EEE8capacityB7v160006Ev, symObjAddr: 0x4E10, symBinAddr: 0x100007504, symSize: 0x40 }
  - { offsetInCU: 0xF96A, offset: 0xF96A, size: 0x8, addend: 0x0, symName: __ZNSt3__114__split_bufferI6secretRNS_9allocatorIS1_EEE17__destruct_at_endB7v160006EPS1_, symObjAddr: 0x4E50, symBinAddr: 0x100007544, symSize: 0x2C }
  - { offsetInCU: 0xF99C, offset: 0xF99C, size: 0x8, addend: 0x0, symName: __ZNSt3__114__split_bufferI6secretRNS_9allocatorIS1_EEE17__destruct_at_endB7v160006EPS1_NS_17integral_constantIbLb0EEE, symObjAddr: 0x4E7C, symBinAddr: 0x100007570, symSize: 0x80 }
  - { offsetInCU: 0xF9DC, offset: 0xF9DC, size: 0x8, addend: 0x0, symName: __ZNKSt3__114__split_bufferI6secretRNS_9allocatorIS1_EEE9__end_capB7v160006Ev, symObjAddr: 0x4EFC, symBinAddr: 0x1000075F0, symSize: 0x28 }
  - { offsetInCU: 0xFA01, offset: 0xFA01, size: 0x8, addend: 0x0, symName: __ZNKSt3__117__compressed_pairIP6secretRNS_9allocatorIS1_EEE5firstB7v160006Ev, symObjAddr: 0x4F24, symBinAddr: 0x100007618, symSize: 0x24 }
  - { offsetInCU: 0xFA26, offset: 0xFA26, size: 0x8, addend: 0x0, symName: __ZNSt3__16vectorIdNS_9allocatorIdEEE11__make_iterB7v160006EPd, symObjAddr: 0x4F48, symBinAddr: 0x10000763C, symSize: 0x34 }
  - { offsetInCU: 0xFA5A, offset: 0xFA5A, size: 0x8, addend: 0x0, symName: __ZNSt3__111__wrap_iterIPdEC1B7v160006EPKvS1_, symObjAddr: 0x4F7C, symBinAddr: 0x100007670, symSize: 0x3C }
  - { offsetInCU: 0xFA9F, offset: 0xFA9F, size: 0x8, addend: 0x0, symName: __ZNSt3__111__wrap_iterIPdEC2B7v160006EPKvS1_, symObjAddr: 0x4FB8, symBinAddr: 0x1000076AC, symSize: 0x24 }
  - { offsetInCU: 0xFAE4, offset: 0xFAE4, size: 0x8, addend: 0x0, symName: __ZNSt3__16vectorI6secretNS_9allocatorIS1_EEE11__make_iterB7v160006EPS1_, symObjAddr: 0x4FDC, symBinAddr: 0x1000076D0, symSize: 0x34 }
  - { offsetInCU: 0xFB18, offset: 0xFB18, size: 0x8, addend: 0x0, symName: __ZNSt3__111__wrap_iterIP6secretEC1B7v160006EPKvS2_, symObjAddr: 0x5010, symBinAddr: 0x100007704, symSize: 0x3C }
  - { offsetInCU: 0xFB5D, offset: 0xFB5D, size: 0x8, addend: 0x0, symName: __ZNSt3__111__wrap_iterIP6secretEC2B7v160006EPKvS2_, symObjAddr: 0x504C, symBinAddr: 0x100007740, symSize: 0x24 }
...
